; ModuleID = 'source-C-CXX/61/18.c'
source_filename = "source-C-CXX/61/18.c"
target datalayout = "e-m:e-p270:32:32-p271:32:32-p272:64:64-i64:64-f80:128-n8:16:32:64-S128"
target triple = "x86_64-pc-linux-gnu"

; Function Attrs: nounwind sspstrong uwtable
define dso_local i32 @main() local_unnamed_addr #0 {
  %1 = alloca [100000 x i8], align 16
  %2 = getelementptr inbounds [100000 x i8], [100000 x i8]* %1, i64 0, i64 0
  call void @llvm.lifetime.start.p0i8(i64 100000, i8* nonnull %2) #5
  call void @llvm.memset.p0i8.i64(i8* noundef nonnull align 16 dereferenceable(100000) %2, i8 0, i64 100000, i1 false)
  %3 = call i32 (i8*, ...) bitcast (i32 (...)* @gets to i32 (i8*, ...)*)(i8* nonnull %2) #5
  br label %4

4:                                                ; preds = %16, %0
  %5 = phi i64 [ 0, %0 ], [ %17, %16 ]
  %6 = getelementptr inbounds [100000 x i8], [100000 x i8]* %1, i64 0, i64 %5
  %7 = load i8, i8* %6, align 1, !tbaa !5
  switch i8 %7, label %9 [
    i8 0, label %8
    i8 32, label %18
  ]

8:                                                ; preds = %4
  call void @llvm.lifetime.end.p0i8(i64 100000, i8* nonnull %2) #5
  ret i32 0

9:                                                ; preds = %4
  %10 = sext i8 %7 to i32
  %11 = call i32 @putchar(i32 %10)
  %12 = load i8, i8* %6, align 1, !tbaa !5
  %13 = icmp eq i8 %12, 32
  br i1 %13, label %18, label %14

14:                                               ; preds = %9
  %15 = add nuw i64 %5, 1
  br label %16

16:                                               ; preds = %14, %23, %18
  %17 = phi i64 [ %15, %14 ], [ %19, %23 ], [ %19, %18 ]
  br label %4

18:                                               ; preds = %4, %9
  %19 = add nuw i64 %5, 1
  %20 = getelementptr inbounds [100000 x i8], [100000 x i8]* %1, i64 0, i64 %19
  %21 = load i8, i8* %20, align 1, !tbaa !5
  %22 = icmp eq i8 %21, 32
  br i1 %22, label %16, label %23

23:                                               ; preds = %18
  %24 = call i32 @putchar(i32 32)
  br label %16
}

; Function Attrs: argmemonly mustprogress nofree nosync nounwind willreturn
declare void @llvm.lifetime.start.p0i8(i64 immarg, i8* nocapture) #1

; Function Attrs: argmemonly mustprogress nofree nounwind willreturn writeonly
declare void @llvm.memset.p0i8.i64(i8* nocapture writeonly, i8, i64, i1 immarg) #2

declare i32 @gets(...) local_unnamed_addr #3

; Function Attrs: argmemonly mustprogress nofree nosync nounwind willreturn
declare void @llvm.lifetime.end.p0i8(i64 immarg, i8* nocapture) #1

; Function Attrs: nofree nounwind
declare noundef i32 @putchar(i32 noundef) local_unnamed_addr #4


!llvm.module.flags = !{!0, !1, !2, !3}
!llvm.ident = !{!4}

!0 = !{i32 1, !"wchar_size", i32 4}
!1 = !{i32 7, !"PIC Level", i32 2}
!2 = !{i32 7, !"PIE Level", i32 2}
!3 = !{i32 7, !"uwtable", i32 1}
!4 = !{!"clang version 13.0.0"}
!5 = !{!6, !6, i64 0}
!6 = !{!"omnipotent char", !7, i64 0}
!7 = !{!"Simple C/C++ TBAA"}
